; Function Attrs: nounwind uwtable
define hidden i32 @mbedtls_x509_crt_parse_file(ptr noundef %0, ptr noundef %1) local_unnamed_addr #0 {
  %3 = alloca i64, align 8
  %4 = alloca ptr, align 8
  call void @llvm.lifetime.start.p0(i64 8, ptr nonnull %3) #17
  call void @llvm.lifetime.start.p0(i64 8, ptr nonnull %4) #17
  %5 = call i32 @mbedtls_pk_load_file(ptr noundef %1, ptr noundef nonnull %4, ptr noundef nonnull %3) #17
  %.not = icmp eq i32 %5, 0
  br i1 %.not, label %6, label %12

6:                                                ; preds = %2
  %7 = load ptr, ptr %4, align 8, !tbaa !24
  %8 = load i64, ptr %3, align 8, !tbaa !25
  %9 = call i32 @mbedtls_x509_crt_parse(ptr noundef %0, ptr noundef %7, i64 noundef %8)
  %10 = load ptr, ptr %4, align 8, !tbaa !24
  %11 = load i64, ptr %3, align 8, !tbaa !25
  call void @mbedtls_zeroize_and_free(ptr noundef %10, i64 noundef %11) #17
  br label %12

12:                                               ; preds = %2, %6
  %.0 = phi i32 [ %9, %6 ], [ %5, %2 ]
  call void @llvm.lifetime.end.p0(i64 8, ptr nonnull %4) #17
  call void @llvm.lifetime.end.p0(i64 8, ptr nonnull %3) #17
  ret i32 %.0
}